; Function Attrs: mustprogress nofree norecurse nosync nounwind willreturn memory(readwrite, inaccessiblemem: none) uwtable
define void @_Z46dd_dlb_set_should_check_whether_to_turn_dlb_onP12gmx_domdec_tb(ptr noundef readonly captures(none) %0, i1 noundef zeroext %1) local_unnamed_addr #7 {
  %3 = getelementptr inbounds nuw i8, ptr %0, i64 320
  %4 = load ptr, ptr %3, align 8
  %5 = getelementptr inbounds nuw i8, ptr %4, i64 368
  %6 = load i32, ptr %5, align 8
  %7 = icmp eq i32 %6, 2
  br i1 %7, label %8, label %17

8:                                                ; preds = %2
  %9 = zext i1 %1 to i8
  %10 = getelementptr inbounds nuw i8, ptr %4, i64 372
  store i8 %9, ptr %10, align 4
  br i1 %1, label %11, label %17

11:                                               ; preds = %8
  %12 = getelementptr inbounds nuw i8, ptr %0, i64 328
  %13 = load i64, ptr %12, align 8
  %14 = trunc i64 %13 to i32
  %15 = load ptr, ptr %3, align 8
  %16 = getelementptr inbounds nuw i8, ptr %15, i64 376
  store i32 %14, ptr %16, align 8
  br label %17

17:                                               ; preds = %8, %11, %2
  ret void
}